
user/_sniffer:     file format elf64-littleriscv


Disassembly of section .text:

0000000000000000 <main>:
// however, if you comment out the while(1) loop, it works as intended
// i have no idea why this happens
// the while version still passes the lab tests, so i will leave it as is as it is technically more efficient

int main(int argc, char *argv[])
{
   0:	711d                	addi	sp,sp,-96
   2:	ec86                	sd	ra,88(sp)
   4:	e8a2                	sd	s0,80(sp)
   6:	e4a6                	sd	s1,72(sp)
   8:	e0ca                	sd	s2,64(sp)
   a:	fc4e                	sd	s3,56(sp)
   c:	f852                	sd	s4,48(sp)
   e:	f456                	sd	s5,40(sp)
  10:	f05a                	sd	s6,32(sp)
  12:	ec5e                	sd	s7,24(sp)
  14:	e862                	sd	s8,16(sp)
  16:	e466                	sd	s9,8(sp)
  18:	1080                	addi	s0,sp,96
  char *helper = "This may help.";

  while (1)
  {
    char *memory = sbrk(size);
    if (memory == (char *)-1) // if sbrk fails, it will allocate (char *)-1
  1a:	5cfd                	li	s9,-1
    {
      exit(1);
    }
    for (int i = 0; i < size - 16; i++)
  1c:	4c01                	li	s8,0
    {
      int found = 1;
      for (int j = 0; j < strlen(helper); j++)
  1e:	00001a17          	auipc	s4,0x1
  22:	8f2a0a13          	addi	s4,s4,-1806 # 910 <malloc+0x100>
    for (int i = 0; i < size - 16; i++)
  26:	6b21                	lui	s6,0x8
  28:	1b41                	addi	s6,s6,-16 # 7ff0 <base+0x6fe0>
    char *memory = sbrk(size);
  2a:	6521                	lui	a0,0x8
  2c:	2c8000ef          	jal	2f4 <sbrk>
  30:	8baa                	mv	s7,a0
    if (memory == (char *)-1) // if sbrk fails, it will allocate (char *)-1
  32:	01950563          	beq	a0,s9,3c <main+0x3c>
  36:	89aa                	mv	s3,a0
    for (int i = 0; i < size - 16; i++)
  38:	8ae2                	mv	s5,s8
  3a:	a025                	j	62 <main+0x62>
      exit(1);
  3c:	4505                	li	a0,1
  3e:	2ea000ef          	jal	328 <exit>
        }
      }

      if (found) // if inner loop didnt set found to 0, we found it
      {
        printf("%s\n", &memory[i + 16]);
  42:	010a859b          	addiw	a1,s5,16
  46:	95de                	add	a1,a1,s7
  48:	00001517          	auipc	a0,0x1
  4c:	8d850513          	addi	a0,a0,-1832 # 920 <malloc+0x110>
  50:	70c000ef          	jal	75c <printf>
        exit(0);
  54:	4501                	li	a0,0
  56:	2d2000ef          	jal	328 <exit>
    for (int i = 0; i < size - 16; i++)
  5a:	2a85                	addiw	s5,s5,1
  5c:	0985                	addi	s3,s3,1
  5e:	fd6a86e3          	beq	s5,s6,2a <main+0x2a>
  62:	00001917          	auipc	s2,0x1
  66:	8ae90913          	addi	s2,s2,-1874 # 910 <malloc+0x100>
{
  6a:	4481                	li	s1,0
      for (int j = 0; j < strlen(helper); j++)
  6c:	8552                	mv	a0,s4
  6e:	07e000ef          	jal	ec <strlen>
  72:	2501                	sext.w	a0,a0
  74:	0004879b          	sext.w	a5,s1
  78:	fca7f5e3          	bgeu	a5,a0,42 <main+0x42>
        if (memory[i + j] != helper[j]) // if first byte mismatches, break
  7c:	009987b3          	add	a5,s3,s1
  80:	0007c703          	lbu	a4,0(a5)
  84:	00094783          	lbu	a5,0(s2)
  88:	0485                	addi	s1,s1,1
  8a:	0905                	addi	s2,s2,1
  8c:	fef700e3          	beq	a4,a5,6c <main+0x6c>
  90:	b7e9                	j	5a <main+0x5a>

0000000000000092 <start>:
//
// wrapper so that it's OK if main() does not call exit().
//
void
start()
{
  92:	1141                	addi	sp,sp,-16
  94:	e406                	sd	ra,8(sp)
  96:	e022                	sd	s0,0(sp)
  98:	0800                	addi	s0,sp,16
  extern int main();
  main();
  9a:	f67ff0ef          	jal	0 <main>
  exit(0);
  9e:	4501                	li	a0,0
  a0:	288000ef          	jal	328 <exit>

00000000000000a4 <strcpy>:
}

char*
strcpy(char *s, const char *t)
{
  a4:	1141                	addi	sp,sp,-16
  a6:	e422                	sd	s0,8(sp)
  a8:	0800                	addi	s0,sp,16
  char *os;

  os = s;
  while((*s++ = *t++) != 0)
  aa:	87aa                	mv	a5,a0
  ac:	0585                	addi	a1,a1,1
  ae:	0785                	addi	a5,a5,1
  b0:	fff5c703          	lbu	a4,-1(a1)
  b4:	fee78fa3          	sb	a4,-1(a5)
  b8:	fb75                	bnez	a4,ac <strcpy+0x8>
    ;
  return os;
}
  ba:	6422                	ld	s0,8(sp)
  bc:	0141                	addi	sp,sp,16
  be:	8082                	ret

00000000000000c0 <strcmp>:

int
strcmp(const char *p, const char *q)
{
  c0:	1141                	addi	sp,sp,-16
  c2:	e422                	sd	s0,8(sp)
  c4:	0800                	addi	s0,sp,16
  while(*p && *p == *q)
  c6:	00054783          	lbu	a5,0(a0)
  ca:	cb91                	beqz	a5,de <strcmp+0x1e>
  cc:	0005c703          	lbu	a4,0(a1)
  d0:	00f71763          	bne	a4,a5,de <strcmp+0x1e>
    p++, q++;
  d4:	0505                	addi	a0,a0,1
  d6:	0585                	addi	a1,a1,1
  while(*p && *p == *q)
  d8:	00054783          	lbu	a5,0(a0)
  dc:	fbe5                	bnez	a5,cc <strcmp+0xc>
  return (uchar)*p - (uchar)*q;
  de:	0005c503          	lbu	a0,0(a1)
}
  e2:	40a7853b          	subw	a0,a5,a0
  e6:	6422                	ld	s0,8(sp)
  e8:	0141                	addi	sp,sp,16
  ea:	8082                	ret

00000000000000ec <strlen>:

uint
strlen(const char *s)
{
  ec:	1141                	addi	sp,sp,-16
  ee:	e422                	sd	s0,8(sp)
  f0:	0800                	addi	s0,sp,16
  int n;

  for(n = 0; s[n]; n++)
  f2:	00054783          	lbu	a5,0(a0)
  f6:	cf91                	beqz	a5,112 <strlen+0x26>
  f8:	0505                	addi	a0,a0,1
  fa:	87aa                	mv	a5,a0
  fc:	86be                	mv	a3,a5
  fe:	0785                	addi	a5,a5,1
 100:	fff7c703          	lbu	a4,-1(a5)
 104:	ff65                	bnez	a4,fc <strlen+0x10>
 106:	40a6853b          	subw	a0,a3,a0
 10a:	2505                	addiw	a0,a0,1
    ;
  return n;
}
 10c:	6422                	ld	s0,8(sp)
 10e:	0141                	addi	sp,sp,16
 110:	8082                	ret
  for(n = 0; s[n]; n++)
 112:	4501                	li	a0,0
 114:	bfe5                	j	10c <strlen+0x20>

0000000000000116 <memset>:

void*
memset(void *dst, int c, uint n)
{
 116:	1141                	addi	sp,sp,-16
 118:	e422                	sd	s0,8(sp)
 11a:	0800                	addi	s0,sp,16
  char *cdst = (char *) dst;
  int i;
  for(i = 0; i < n; i++){
 11c:	ca19                	beqz	a2,132 <memset+0x1c>
 11e:	87aa                	mv	a5,a0
 120:	1602                	slli	a2,a2,0x20
 122:	9201                	srli	a2,a2,0x20
 124:	00a60733          	add	a4,a2,a0
    cdst[i] = c;
 128:	00b78023          	sb	a1,0(a5)
  for(i = 0; i < n; i++){
 12c:	0785                	addi	a5,a5,1
 12e:	fee79de3          	bne	a5,a4,128 <memset+0x12>
  }
  return dst;
}
 132:	6422                	ld	s0,8(sp)
 134:	0141                	addi	sp,sp,16
 136:	8082                	ret

0000000000000138 <strchr>:

char*
strchr(const char *s, char c)
{
 138:	1141                	addi	sp,sp,-16
 13a:	e422                	sd	s0,8(sp)
 13c:	0800                	addi	s0,sp,16
  for(; *s; s++)
 13e:	00054783          	lbu	a5,0(a0)
 142:	cb99                	beqz	a5,158 <strchr+0x20>
    if(*s == c)
 144:	00f58763          	beq	a1,a5,152 <strchr+0x1a>
  for(; *s; s++)
 148:	0505                	addi	a0,a0,1
 14a:	00054783          	lbu	a5,0(a0)
 14e:	fbfd                	bnez	a5,144 <strchr+0xc>
      return (char*)s;
  return 0;
 150:	4501                	li	a0,0
}
 152:	6422                	ld	s0,8(sp)
 154:	0141                	addi	sp,sp,16
 156:	8082                	ret
  return 0;
 158:	4501                	li	a0,0
 15a:	bfe5                	j	152 <strchr+0x1a>

000000000000015c <gets>:

char*
gets(char *buf, int max)
{
 15c:	711d                	addi	sp,sp,-96
 15e:	ec86                	sd	ra,88(sp)
 160:	e8a2                	sd	s0,80(sp)
 162:	e4a6                	sd	s1,72(sp)
 164:	e0ca                	sd	s2,64(sp)
 166:	fc4e                	sd	s3,56(sp)
 168:	f852                	sd	s4,48(sp)
 16a:	f456                	sd	s5,40(sp)
 16c:	f05a                	sd	s6,32(sp)
 16e:	ec5e                	sd	s7,24(sp)
 170:	1080                	addi	s0,sp,96
 172:	8baa                	mv	s7,a0
 174:	8a2e                	mv	s4,a1
  int i, cc;
  char c;

  for(i=0; i+1 < max; ){
 176:	892a                	mv	s2,a0
 178:	4481                	li	s1,0
    cc = read(0, &c, 1);
    if(cc < 1)
      break;
    buf[i++] = c;
    if(c == '\n' || c == '\r')
 17a:	4aa9                	li	s5,10
 17c:	4b35                	li	s6,13
  for(i=0; i+1 < max; ){
 17e:	89a6                	mv	s3,s1
 180:	2485                	addiw	s1,s1,1
 182:	0344d663          	bge	s1,s4,1ae <gets+0x52>
    cc = read(0, &c, 1);
 186:	4605                	li	a2,1
 188:	faf40593          	addi	a1,s0,-81
 18c:	4501                	li	a0,0
 18e:	1b2000ef          	jal	340 <read>
    if(cc < 1)
 192:	00a05e63          	blez	a0,1ae <gets+0x52>
    buf[i++] = c;
 196:	faf44783          	lbu	a5,-81(s0)
 19a:	00f90023          	sb	a5,0(s2)
    if(c == '\n' || c == '\r')
 19e:	01578763          	beq	a5,s5,1ac <gets+0x50>
 1a2:	0905                	addi	s2,s2,1
 1a4:	fd679de3          	bne	a5,s6,17e <gets+0x22>
    buf[i++] = c;
 1a8:	89a6                	mv	s3,s1
 1aa:	a011                	j	1ae <gets+0x52>
 1ac:	89a6                	mv	s3,s1
      break;
  }
  buf[i] = '\0';
 1ae:	99de                	add	s3,s3,s7
 1b0:	00098023          	sb	zero,0(s3)
  return buf;
}
 1b4:	855e                	mv	a0,s7
 1b6:	60e6                	ld	ra,88(sp)
 1b8:	6446                	ld	s0,80(sp)
 1ba:	64a6                	ld	s1,72(sp)
 1bc:	6906                	ld	s2,64(sp)
 1be:	79e2                	ld	s3,56(sp)
 1c0:	7a42                	ld	s4,48(sp)
 1c2:	7aa2                	ld	s5,40(sp)
 1c4:	7b02                	ld	s6,32(sp)
 1c6:	6be2                	ld	s7,24(sp)
 1c8:	6125                	addi	sp,sp,96
 1ca:	8082                	ret

00000000000001cc <stat>:

int
stat(const char *n, struct stat *st)
{
 1cc:	1101                	addi	sp,sp,-32
 1ce:	ec06                	sd	ra,24(sp)
 1d0:	e822                	sd	s0,16(sp)
 1d2:	e04a                	sd	s2,0(sp)
 1d4:	1000                	addi	s0,sp,32
 1d6:	892e                	mv	s2,a1
  int fd;
  int r;

  fd = open(n, O_RDONLY);
 1d8:	4581                	li	a1,0
 1da:	18e000ef          	jal	368 <open>
  if(fd < 0)
 1de:	02054263          	bltz	a0,202 <stat+0x36>
 1e2:	e426                	sd	s1,8(sp)
 1e4:	84aa                	mv	s1,a0
    return -1;
  r = fstat(fd, st);
 1e6:	85ca                	mv	a1,s2
 1e8:	198000ef          	jal	380 <fstat>
 1ec:	892a                	mv	s2,a0
  close(fd);
 1ee:	8526                	mv	a0,s1
 1f0:	160000ef          	jal	350 <close>
  return r;
 1f4:	64a2                	ld	s1,8(sp)
}
 1f6:	854a                	mv	a0,s2
 1f8:	60e2                	ld	ra,24(sp)
 1fa:	6442                	ld	s0,16(sp)
 1fc:	6902                	ld	s2,0(sp)
 1fe:	6105                	addi	sp,sp,32
 200:	8082                	ret
    return -1;
 202:	597d                	li	s2,-1
 204:	bfcd                	j	1f6 <stat+0x2a>

0000000000000206 <atoi>:

int
atoi(const char *s)
{
 206:	1141                	addi	sp,sp,-16
 208:	e422                	sd	s0,8(sp)
 20a:	0800                	addi	s0,sp,16
  int n;

  n = 0;
  while('0' <= *s && *s <= '9')
 20c:	00054683          	lbu	a3,0(a0)
 210:	fd06879b          	addiw	a5,a3,-48
 214:	0ff7f793          	zext.b	a5,a5
 218:	4625                	li	a2,9
 21a:	02f66863          	bltu	a2,a5,24a <atoi+0x44>
 21e:	872a                	mv	a4,a0
  n = 0;
 220:	4501                	li	a0,0
    n = n*10 + *s++ - '0';
 222:	0705                	addi	a4,a4,1
 224:	0025179b          	slliw	a5,a0,0x2
 228:	9fa9                	addw	a5,a5,a0
 22a:	0017979b          	slliw	a5,a5,0x1
 22e:	9fb5                	addw	a5,a5,a3
 230:	fd07851b          	addiw	a0,a5,-48
  while('0' <= *s && *s <= '9')
 234:	00074683          	lbu	a3,0(a4)
 238:	fd06879b          	addiw	a5,a3,-48
 23c:	0ff7f793          	zext.b	a5,a5
 240:	fef671e3          	bgeu	a2,a5,222 <atoi+0x1c>
  return n;
}
 244:	6422                	ld	s0,8(sp)
 246:	0141                	addi	sp,sp,16
 248:	8082                	ret
  n = 0;
 24a:	4501                	li	a0,0
 24c:	bfe5                	j	244 <atoi+0x3e>

000000000000024e <memmove>:

void*
memmove(void *vdst, const void *vsrc, int n)
{
 24e:	1141                	addi	sp,sp,-16
 250:	e422                	sd	s0,8(sp)
 252:	0800                	addi	s0,sp,16
  char *dst;
  const char *src;

  dst = vdst;
  src = vsrc;
  if (src > dst) {
 254:	02b57463          	bgeu	a0,a1,27c <memmove+0x2e>
    while(n-- > 0)
 258:	00c05f63          	blez	a2,276 <memmove+0x28>
 25c:	1602                	slli	a2,a2,0x20
 25e:	9201                	srli	a2,a2,0x20
 260:	00c507b3          	add	a5,a0,a2
  dst = vdst;
 264:	872a                	mv	a4,a0
      *dst++ = *src++;
 266:	0585                	addi	a1,a1,1
 268:	0705                	addi	a4,a4,1
 26a:	fff5c683          	lbu	a3,-1(a1)
 26e:	fed70fa3          	sb	a3,-1(a4)
    while(n-- > 0)
 272:	fef71ae3          	bne	a4,a5,266 <memmove+0x18>
    src += n;
    while(n-- > 0)
      *--dst = *--src;
  }
  return vdst;
}
 276:	6422                	ld	s0,8(sp)
 278:	0141                	addi	sp,sp,16
 27a:	8082                	ret
    dst += n;
 27c:	00c50733          	add	a4,a0,a2
    src += n;
 280:	95b2                	add	a1,a1,a2
    while(n-- > 0)
 282:	fec05ae3          	blez	a2,276 <memmove+0x28>
 286:	fff6079b          	addiw	a5,a2,-1
 28a:	1782                	slli	a5,a5,0x20
 28c:	9381                	srli	a5,a5,0x20
 28e:	fff7c793          	not	a5,a5
 292:	97ba                	add	a5,a5,a4
      *--dst = *--src;
 294:	15fd                	addi	a1,a1,-1
 296:	177d                	addi	a4,a4,-1
 298:	0005c683          	lbu	a3,0(a1)
 29c:	00d70023          	sb	a3,0(a4)
    while(n-- > 0)
 2a0:	fee79ae3          	bne	a5,a4,294 <memmove+0x46>
 2a4:	bfc9                	j	276 <memmove+0x28>

00000000000002a6 <memcmp>:

int
memcmp(const void *s1, const void *s2, uint n)
{
 2a6:	1141                	addi	sp,sp,-16
 2a8:	e422                	sd	s0,8(sp)
 2aa:	0800                	addi	s0,sp,16
  const char *p1 = s1, *p2 = s2;
  while (n-- > 0) {
 2ac:	ca05                	beqz	a2,2dc <memcmp+0x36>
 2ae:	fff6069b          	addiw	a3,a2,-1
 2b2:	1682                	slli	a3,a3,0x20
 2b4:	9281                	srli	a3,a3,0x20
 2b6:	0685                	addi	a3,a3,1
 2b8:	96aa                	add	a3,a3,a0
    if (*p1 != *p2) {
 2ba:	00054783          	lbu	a5,0(a0)
 2be:	0005c703          	lbu	a4,0(a1)
 2c2:	00e79863          	bne	a5,a4,2d2 <memcmp+0x2c>
      return *p1 - *p2;
    }
    p1++;
 2c6:	0505                	addi	a0,a0,1
    p2++;
 2c8:	0585                	addi	a1,a1,1
  while (n-- > 0) {
 2ca:	fed518e3          	bne	a0,a3,2ba <memcmp+0x14>
  }
  return 0;
 2ce:	4501                	li	a0,0
 2d0:	a019                	j	2d6 <memcmp+0x30>
      return *p1 - *p2;
 2d2:	40e7853b          	subw	a0,a5,a4
}
 2d6:	6422                	ld	s0,8(sp)
 2d8:	0141                	addi	sp,sp,16
 2da:	8082                	ret
  return 0;
 2dc:	4501                	li	a0,0
 2de:	bfe5                	j	2d6 <memcmp+0x30>

00000000000002e0 <memcpy>:

void *
memcpy(void *dst, const void *src, uint n)
{
 2e0:	1141                	addi	sp,sp,-16
 2e2:	e406                	sd	ra,8(sp)
 2e4:	e022                	sd	s0,0(sp)
 2e6:	0800                	addi	s0,sp,16
  return memmove(dst, src, n);
 2e8:	f67ff0ef          	jal	24e <memmove>
}
 2ec:	60a2                	ld	ra,8(sp)
 2ee:	6402                	ld	s0,0(sp)
 2f0:	0141                	addi	sp,sp,16
 2f2:	8082                	ret

00000000000002f4 <sbrk>:

char *
sbrk(int n) {
 2f4:	1141                	addi	sp,sp,-16
 2f6:	e406                	sd	ra,8(sp)
 2f8:	e022                	sd	s0,0(sp)
 2fa:	0800                	addi	s0,sp,16
  return sys_sbrk(n, SBRK_EAGER);
 2fc:	4585                	li	a1,1
 2fe:	0b2000ef          	jal	3b0 <sys_sbrk>
}
 302:	60a2                	ld	ra,8(sp)
 304:	6402                	ld	s0,0(sp)
 306:	0141                	addi	sp,sp,16
 308:	8082                	ret

000000000000030a <sbrklazy>:

char *
sbrklazy(int n) {
 30a:	1141                	addi	sp,sp,-16
 30c:	e406                	sd	ra,8(sp)
 30e:	e022                	sd	s0,0(sp)
 310:	0800                	addi	s0,sp,16
  return sys_sbrk(n, SBRK_LAZY);
 312:	4589                	li	a1,2
 314:	09c000ef          	jal	3b0 <sys_sbrk>
}
 318:	60a2                	ld	ra,8(sp)
 31a:	6402                	ld	s0,0(sp)
 31c:	0141                	addi	sp,sp,16
 31e:	8082                	ret

0000000000000320 <fork>:
# generated by usys.pl - do not edit
#include "kernel/syscall.h"
.global fork
fork:
 li a7, SYS_fork
 320:	4885                	li	a7,1
 ecall
 322:	00000073          	ecall
 ret
 326:	8082                	ret

0000000000000328 <exit>:
.global exit
exit:
 li a7, SYS_exit
 328:	4889                	li	a7,2
 ecall
 32a:	00000073          	ecall
 ret
 32e:	8082                	ret

0000000000000330 <wait>:
.global wait
wait:
 li a7, SYS_wait
 330:	488d                	li	a7,3
 ecall
 332:	00000073          	ecall
 ret
 336:	8082                	ret

0000000000000338 <pipe>:
.global pipe
pipe:
 li a7, SYS_pipe
 338:	4891                	li	a7,4
 ecall
 33a:	00000073          	ecall
 ret
 33e:	8082                	ret

0000000000000340 <read>:
.global read
read:
 li a7, SYS_read
 340:	4895                	li	a7,5
 ecall
 342:	00000073          	ecall
 ret
 346:	8082                	ret

0000000000000348 <write>:
.global write
write:
 li a7, SYS_write
 348:	48c1                	li	a7,16
 ecall
 34a:	00000073          	ecall
 ret
 34e:	8082                	ret

0000000000000350 <close>:
.global close
close:
 li a7, SYS_close
 350:	48d5                	li	a7,21
 ecall
 352:	00000073          	ecall
 ret
 356:	8082                	ret

0000000000000358 <kill>:
.global kill
kill:
 li a7, SYS_kill
 358:	4899                	li	a7,6
 ecall
 35a:	00000073          	ecall
 ret
 35e:	8082                	ret

0000000000000360 <exec>:
.global exec
exec:
 li a7, SYS_exec
 360:	489d                	li	a7,7
 ecall
 362:	00000073          	ecall
 ret
 366:	8082                	ret

0000000000000368 <open>:
.global open
open:
 li a7, SYS_open
 368:	48bd                	li	a7,15
 ecall
 36a:	00000073          	ecall
 ret
 36e:	8082                	ret

0000000000000370 <mknod>:
.global mknod
mknod:
 li a7, SYS_mknod
 370:	48c5                	li	a7,17
 ecall
 372:	00000073          	ecall
 ret
 376:	8082                	ret

0000000000000378 <unlink>:
.global unlink
unlink:
 li a7, SYS_unlink
 378:	48c9                	li	a7,18
 ecall
 37a:	00000073          	ecall
 ret
 37e:	8082                	ret

0000000000000380 <fstat>:
.global fstat
fstat:
 li a7, SYS_fstat
 380:	48a1                	li	a7,8
 ecall
 382:	00000073          	ecall
 ret
 386:	8082                	ret

0000000000000388 <link>:
.global link
link:
 li a7, SYS_link
 388:	48cd                	li	a7,19
 ecall
 38a:	00000073          	ecall
 ret
 38e:	8082                	ret

0000000000000390 <mkdir>:
.global mkdir
mkdir:
 li a7, SYS_mkdir
 390:	48d1                	li	a7,20
 ecall
 392:	00000073          	ecall
 ret
 396:	8082                	ret

0000000000000398 <chdir>:
.global chdir
chdir:
 li a7, SYS_chdir
 398:	48a5                	li	a7,9
 ecall
 39a:	00000073          	ecall
 ret
 39e:	8082                	ret

00000000000003a0 <dup>:
.global dup
dup:
 li a7, SYS_dup
 3a0:	48a9                	li	a7,10
 ecall
 3a2:	00000073          	ecall
 ret
 3a6:	8082                	ret

00000000000003a8 <getpid>:
.global getpid
getpid:
 li a7, SYS_getpid
 3a8:	48ad                	li	a7,11
 ecall
 3aa:	00000073          	ecall
 ret
 3ae:	8082                	ret

00000000000003b0 <sys_sbrk>:
.global sys_sbrk
sys_sbrk:
 li a7, SYS_sbrk
 3b0:	48b1                	li	a7,12
 ecall
 3b2:	00000073          	ecall
 ret
 3b6:	8082                	ret

00000000000003b8 <pause>:
.global pause
pause:
 li a7, SYS_pause
 3b8:	48b5                	li	a7,13
 ecall
 3ba:	00000073          	ecall
 ret
 3be:	8082                	ret

00000000000003c0 <uptime>:
.global uptime
uptime:
 li a7, SYS_uptime
 3c0:	48b9                	li	a7,14
 ecall
 3c2:	00000073          	ecall
 ret
 3c6:	8082                	ret

00000000000003c8 <putc>:

static char digits[] = "0123456789ABCDEF";

static void
putc(int fd, char c)
{
 3c8:	1101                	addi	sp,sp,-32
 3ca:	ec06                	sd	ra,24(sp)
 3cc:	e822                	sd	s0,16(sp)
 3ce:	1000                	addi	s0,sp,32
 3d0:	feb407a3          	sb	a1,-17(s0)
  write(fd, &c, 1);
 3d4:	4605                	li	a2,1
 3d6:	fef40593          	addi	a1,s0,-17
 3da:	f6fff0ef          	jal	348 <write>
}
 3de:	60e2                	ld	ra,24(sp)
 3e0:	6442                	ld	s0,16(sp)
 3e2:	6105                	addi	sp,sp,32
 3e4:	8082                	ret

00000000000003e6 <printint>:

static void
printint(int fd, long long xx, int base, int sgn)
{
 3e6:	715d                	addi	sp,sp,-80
 3e8:	e486                	sd	ra,72(sp)
 3ea:	e0a2                	sd	s0,64(sp)
 3ec:	fc26                	sd	s1,56(sp)
 3ee:	0880                	addi	s0,sp,80
 3f0:	84aa                	mv	s1,a0
  char buf[20];
  int i, neg;
  uint x;

  neg = 0;
  if(sgn && xx < 0){
 3f2:	c299                	beqz	a3,3f8 <printint+0x12>
 3f4:	0805c963          	bltz	a1,486 <printint+0xa0>
    neg = 1;
    x = -xx;
  } else {
    x = xx;
 3f8:	2581                	sext.w	a1,a1
  neg = 0;
 3fa:	4881                	li	a7,0
 3fc:	fb840693          	addi	a3,s0,-72
  }

  i = 0;
 400:	4701                	li	a4,0
  do{
    buf[i++] = digits[x % base];
 402:	2601                	sext.w	a2,a2
 404:	00000517          	auipc	a0,0x0
 408:	52c50513          	addi	a0,a0,1324 # 930 <digits>
 40c:	883a                	mv	a6,a4
 40e:	2705                	addiw	a4,a4,1
 410:	02c5f7bb          	remuw	a5,a1,a2
 414:	1782                	slli	a5,a5,0x20
 416:	9381                	srli	a5,a5,0x20
 418:	97aa                	add	a5,a5,a0
 41a:	0007c783          	lbu	a5,0(a5)
 41e:	00f68023          	sb	a5,0(a3)
  }while((x /= base) != 0);
 422:	0005879b          	sext.w	a5,a1
 426:	02c5d5bb          	divuw	a1,a1,a2
 42a:	0685                	addi	a3,a3,1
 42c:	fec7f0e3          	bgeu	a5,a2,40c <printint+0x26>
  if(neg)
 430:	00088c63          	beqz	a7,448 <printint+0x62>
    buf[i++] = '-';
 434:	fd070793          	addi	a5,a4,-48
 438:	00878733          	add	a4,a5,s0
 43c:	02d00793          	li	a5,45
 440:	fef70423          	sb	a5,-24(a4)
 444:	0028071b          	addiw	a4,a6,2

  while(--i >= 0)
 448:	02e05a63          	blez	a4,47c <printint+0x96>
 44c:	f84a                	sd	s2,48(sp)
 44e:	f44e                	sd	s3,40(sp)
 450:	fb840793          	addi	a5,s0,-72
 454:	00e78933          	add	s2,a5,a4
 458:	fff78993          	addi	s3,a5,-1
 45c:	99ba                	add	s3,s3,a4
 45e:	377d                	addiw	a4,a4,-1
 460:	1702                	slli	a4,a4,0x20
 462:	9301                	srli	a4,a4,0x20
 464:	40e989b3          	sub	s3,s3,a4
    putc(fd, buf[i]);
 468:	fff94583          	lbu	a1,-1(s2)
 46c:	8526                	mv	a0,s1
 46e:	f5bff0ef          	jal	3c8 <putc>
  while(--i >= 0)
 472:	197d                	addi	s2,s2,-1
 474:	ff391ae3          	bne	s2,s3,468 <printint+0x82>
 478:	7942                	ld	s2,48(sp)
 47a:	79a2                	ld	s3,40(sp)
}
 47c:	60a6                	ld	ra,72(sp)
 47e:	6406                	ld	s0,64(sp)
 480:	74e2                	ld	s1,56(sp)
 482:	6161                	addi	sp,sp,80
 484:	8082                	ret
    x = -xx;
 486:	40b005bb          	negw	a1,a1
    neg = 1;
 48a:	4885                	li	a7,1
    x = -xx;
 48c:	bf85                	j	3fc <printint+0x16>

000000000000048e <vprintf>:
}

// Print to the given fd. Only understands %d, %x, %p, %c, %s.
void
vprintf(int fd, const char *fmt, va_list ap)
{
 48e:	711d                	addi	sp,sp,-96
 490:	ec86                	sd	ra,88(sp)
 492:	e8a2                	sd	s0,80(sp)
 494:	e0ca                	sd	s2,64(sp)
 496:	1080                	addi	s0,sp,96
  char *s;
  int c0, c1, c2, i, state;

  state = 0;
  for(i = 0; fmt[i]; i++){
 498:	0005c903          	lbu	s2,0(a1)
 49c:	28090663          	beqz	s2,728 <vprintf+0x29a>
 4a0:	e4a6                	sd	s1,72(sp)
 4a2:	fc4e                	sd	s3,56(sp)
 4a4:	f852                	sd	s4,48(sp)
 4a6:	f456                	sd	s5,40(sp)
 4a8:	f05a                	sd	s6,32(sp)
 4aa:	ec5e                	sd	s7,24(sp)
 4ac:	e862                	sd	s8,16(sp)
 4ae:	e466                	sd	s9,8(sp)
 4b0:	8b2a                	mv	s6,a0
 4b2:	8a2e                	mv	s4,a1
 4b4:	8bb2                	mv	s7,a2
  state = 0;
 4b6:	4981                	li	s3,0
  for(i = 0; fmt[i]; i++){
 4b8:	4481                	li	s1,0
 4ba:	4701                	li	a4,0
      if(c0 == '%'){
        state = '%';
      } else {
        putc(fd, c0);
      }
    } else if(state == '%'){
 4bc:	02500a93          	li	s5,37
      c1 = c2 = 0;
      if(c0) c1 = fmt[i+1] & 0xff;
      if(c1) c2 = fmt[i+2] & 0xff;
      if(c0 == 'd'){
 4c0:	06400c13          	li	s8,100
        printint(fd, va_arg(ap, int), 10, 1);
      } else if(c0 == 'l' && c1 == 'd'){
 4c4:	06c00c93          	li	s9,108
 4c8:	a005                	j	4e8 <vprintf+0x5a>
        putc(fd, c0);
 4ca:	85ca                	mv	a1,s2
 4cc:	855a                	mv	a0,s6
 4ce:	efbff0ef          	jal	3c8 <putc>
 4d2:	a019                	j	4d8 <vprintf+0x4a>
    } else if(state == '%'){
 4d4:	03598263          	beq	s3,s5,4f8 <vprintf+0x6a>
  for(i = 0; fmt[i]; i++){
 4d8:	2485                	addiw	s1,s1,1
 4da:	8726                	mv	a4,s1
 4dc:	009a07b3          	add	a5,s4,s1
 4e0:	0007c903          	lbu	s2,0(a5)
 4e4:	22090a63          	beqz	s2,718 <vprintf+0x28a>
    c0 = fmt[i] & 0xff;
 4e8:	0009079b          	sext.w	a5,s2
    if(state == 0){
 4ec:	fe0994e3          	bnez	s3,4d4 <vprintf+0x46>
      if(c0 == '%'){
 4f0:	fd579de3          	bne	a5,s5,4ca <vprintf+0x3c>
        state = '%';
 4f4:	89be                	mv	s3,a5
 4f6:	b7cd                	j	4d8 <vprintf+0x4a>
      if(c0) c1 = fmt[i+1] & 0xff;
 4f8:	00ea06b3          	add	a3,s4,a4
 4fc:	0016c683          	lbu	a3,1(a3)
      c1 = c2 = 0;
 500:	8636                	mv	a2,a3
      if(c1) c2 = fmt[i+2] & 0xff;
 502:	c681                	beqz	a3,50a <vprintf+0x7c>
 504:	9752                	add	a4,a4,s4
 506:	00274603          	lbu	a2,2(a4)
      if(c0 == 'd'){
 50a:	05878363          	beq	a5,s8,550 <vprintf+0xc2>
      } else if(c0 == 'l' && c1 == 'd'){
 50e:	05978d63          	beq	a5,s9,568 <vprintf+0xda>
        printint(fd, va_arg(ap, uint64), 10, 1);
        i += 1;
      } else if(c0 == 'l' && c1 == 'l' && c2 == 'd'){
        printint(fd, va_arg(ap, uint64), 10, 1);
        i += 2;
      } else if(c0 == 'u'){
 512:	07500713          	li	a4,117
 516:	0ee78763          	beq	a5,a4,604 <vprintf+0x176>
        printint(fd, va_arg(ap, uint64), 10, 0);
        i += 1;
      } else if(c0 == 'l' && c1 == 'l' && c2 == 'u'){
        printint(fd, va_arg(ap, uint64), 10, 0);
        i += 2;
      } else if(c0 == 'x'){
 51a:	07800713          	li	a4,120
 51e:	12e78963          	beq	a5,a4,650 <vprintf+0x1c2>
        printint(fd, va_arg(ap, uint64), 16, 0);
        i += 1;
      } else if(c0 == 'l' && c1 == 'l' && c2 == 'x'){
        printint(fd, va_arg(ap, uint64), 16, 0);
        i += 2;
      } else if(c0 == 'p'){
 522:	07000713          	li	a4,112
 526:	14e78e63          	beq	a5,a4,682 <vprintf+0x1f4>
        printptr(fd, va_arg(ap, uint64));
      } else if(c0 == 'c'){
 52a:	06300713          	li	a4,99
 52e:	18e78e63          	beq	a5,a4,6ca <vprintf+0x23c>
        putc(fd, va_arg(ap, uint32));
      } else if(c0 == 's'){
 532:	07300713          	li	a4,115
 536:	1ae78463          	beq	a5,a4,6de <vprintf+0x250>
        if((s = va_arg(ap, char*)) == 0)
          s = "(null)";
        for(; *s; s++)
          putc(fd, *s);
      } else if(c0 == '%'){
 53a:	02500713          	li	a4,37
 53e:	04e79563          	bne	a5,a4,588 <vprintf+0xfa>
        putc(fd, '%');
 542:	02500593          	li	a1,37
 546:	855a                	mv	a0,s6
 548:	e81ff0ef          	jal	3c8 <putc>
        // Unknown % sequence.  Print it to draw attention.
        putc(fd, '%');
        putc(fd, c0);
      }

      state = 0;
 54c:	4981                	li	s3,0
 54e:	b769                	j	4d8 <vprintf+0x4a>
        printint(fd, va_arg(ap, int), 10, 1);
 550:	008b8913          	addi	s2,s7,8
 554:	4685                	li	a3,1
 556:	4629                	li	a2,10
 558:	000ba583          	lw	a1,0(s7)
 55c:	855a                	mv	a0,s6
 55e:	e89ff0ef          	jal	3e6 <printint>
 562:	8bca                	mv	s7,s2
      state = 0;
 564:	4981                	li	s3,0
 566:	bf8d                	j	4d8 <vprintf+0x4a>
      } else if(c0 == 'l' && c1 == 'd'){
 568:	06400793          	li	a5,100
 56c:	02f68963          	beq	a3,a5,59e <vprintf+0x110>
      } else if(c0 == 'l' && c1 == 'l' && c2 == 'd'){
 570:	06c00793          	li	a5,108
 574:	04f68263          	beq	a3,a5,5b8 <vprintf+0x12a>
      } else if(c0 == 'l' && c1 == 'u'){
 578:	07500793          	li	a5,117
 57c:	0af68063          	beq	a3,a5,61c <vprintf+0x18e>
      } else if(c0 == 'l' && c1 == 'x'){
 580:	07800793          	li	a5,120
 584:	0ef68263          	beq	a3,a5,668 <vprintf+0x1da>
        putc(fd, '%');
 588:	02500593          	li	a1,37
 58c:	855a                	mv	a0,s6
 58e:	e3bff0ef          	jal	3c8 <putc>
        putc(fd, c0);
 592:	85ca                	mv	a1,s2
 594:	855a                	mv	a0,s6
 596:	e33ff0ef          	jal	3c8 <putc>
      state = 0;
 59a:	4981                	li	s3,0
 59c:	bf35                	j	4d8 <vprintf+0x4a>
        printint(fd, va_arg(ap, uint64), 10, 1);
 59e:	008b8913          	addi	s2,s7,8
 5a2:	4685                	li	a3,1
 5a4:	4629                	li	a2,10
 5a6:	000bb583          	ld	a1,0(s7)
 5aa:	855a                	mv	a0,s6
 5ac:	e3bff0ef          	jal	3e6 <printint>
        i += 1;
 5b0:	2485                	addiw	s1,s1,1
        printint(fd, va_arg(ap, uint64), 10, 1);
 5b2:	8bca                	mv	s7,s2
      state = 0;
 5b4:	4981                	li	s3,0
        i += 1;
 5b6:	b70d                	j	4d8 <vprintf+0x4a>
      } else if(c0 == 'l' && c1 == 'l' && c2 == 'd'){
 5b8:	06400793          	li	a5,100
 5bc:	02f60763          	beq	a2,a5,5ea <vprintf+0x15c>
      } else if(c0 == 'l' && c1 == 'l' && c2 == 'u'){
 5c0:	07500793          	li	a5,117
 5c4:	06f60963          	beq	a2,a5,636 <vprintf+0x1a8>
      } else if(c0 == 'l' && c1 == 'l' && c2 == 'x'){
 5c8:	07800793          	li	a5,120
 5cc:	faf61ee3          	bne	a2,a5,588 <vprintf+0xfa>
        printint(fd, va_arg(ap, uint64), 16, 0);
 5d0:	008b8913          	addi	s2,s7,8
 5d4:	4681                	li	a3,0
 5d6:	4641                	li	a2,16
 5d8:	000bb583          	ld	a1,0(s7)
 5dc:	855a                	mv	a0,s6
 5de:	e09ff0ef          	jal	3e6 <printint>
        i += 2;
 5e2:	2489                	addiw	s1,s1,2
        printint(fd, va_arg(ap, uint64), 16, 0);
 5e4:	8bca                	mv	s7,s2
      state = 0;
 5e6:	4981                	li	s3,0
        i += 2;
 5e8:	bdc5                	j	4d8 <vprintf+0x4a>
        printint(fd, va_arg(ap, uint64), 10, 1);
 5ea:	008b8913          	addi	s2,s7,8
 5ee:	4685                	li	a3,1
 5f0:	4629                	li	a2,10
 5f2:	000bb583          	ld	a1,0(s7)
 5f6:	855a                	mv	a0,s6
 5f8:	defff0ef          	jal	3e6 <printint>
        i += 2;
 5fc:	2489                	addiw	s1,s1,2
        printint(fd, va_arg(ap, uint64), 10, 1);
 5fe:	8bca                	mv	s7,s2
      state = 0;
 600:	4981                	li	s3,0
        i += 2;
 602:	bdd9                	j	4d8 <vprintf+0x4a>
        printint(fd, va_arg(ap, uint32), 10, 0);
 604:	008b8913          	addi	s2,s7,8
 608:	4681                	li	a3,0
 60a:	4629                	li	a2,10
 60c:	000be583          	lwu	a1,0(s7)
 610:	855a                	mv	a0,s6
 612:	dd5ff0ef          	jal	3e6 <printint>
 616:	8bca                	mv	s7,s2
      state = 0;
 618:	4981                	li	s3,0
 61a:	bd7d                	j	4d8 <vprintf+0x4a>
        printint(fd, va_arg(ap, uint64), 10, 0);
 61c:	008b8913          	addi	s2,s7,8
 620:	4681                	li	a3,0
 622:	4629                	li	a2,10
 624:	000bb583          	ld	a1,0(s7)
 628:	855a                	mv	a0,s6
 62a:	dbdff0ef          	jal	3e6 <printint>
        i += 1;
 62e:	2485                	addiw	s1,s1,1
        printint(fd, va_arg(ap, uint64), 10, 0);
 630:	8bca                	mv	s7,s2
      state = 0;
 632:	4981                	li	s3,0
        i += 1;
 634:	b555                	j	4d8 <vprintf+0x4a>
        printint(fd, va_arg(ap, uint64), 10, 0);
 636:	008b8913          	addi	s2,s7,8
 63a:	4681                	li	a3,0
 63c:	4629                	li	a2,10
 63e:	000bb583          	ld	a1,0(s7)
 642:	855a                	mv	a0,s6
 644:	da3ff0ef          	jal	3e6 <printint>
        i += 2;
 648:	2489                	addiw	s1,s1,2
        printint(fd, va_arg(ap, uint64), 10, 0);
 64a:	8bca                	mv	s7,s2
      state = 0;
 64c:	4981                	li	s3,0
        i += 2;
 64e:	b569                	j	4d8 <vprintf+0x4a>
        printint(fd, va_arg(ap, uint32), 16, 0);
 650:	008b8913          	addi	s2,s7,8
 654:	4681                	li	a3,0
 656:	4641                	li	a2,16
 658:	000be583          	lwu	a1,0(s7)
 65c:	855a                	mv	a0,s6
 65e:	d89ff0ef          	jal	3e6 <printint>
 662:	8bca                	mv	s7,s2
      state = 0;
 664:	4981                	li	s3,0
 666:	bd8d                	j	4d8 <vprintf+0x4a>
        printint(fd, va_arg(ap, uint64), 16, 0);
 668:	008b8913          	addi	s2,s7,8
 66c:	4681                	li	a3,0
 66e:	4641                	li	a2,16
 670:	000bb583          	ld	a1,0(s7)
 674:	855a                	mv	a0,s6
 676:	d71ff0ef          	jal	3e6 <printint>
        i += 1;
 67a:	2485                	addiw	s1,s1,1
        printint(fd, va_arg(ap, uint64), 16, 0);
 67c:	8bca                	mv	s7,s2
      state = 0;
 67e:	4981                	li	s3,0
        i += 1;
 680:	bda1                	j	4d8 <vprintf+0x4a>
 682:	e06a                	sd	s10,0(sp)
        printptr(fd, va_arg(ap, uint64));
 684:	008b8d13          	addi	s10,s7,8
 688:	000bb983          	ld	s3,0(s7)
  putc(fd, '0');
 68c:	03000593          	li	a1,48
 690:	855a                	mv	a0,s6
 692:	d37ff0ef          	jal	3c8 <putc>
  putc(fd, 'x');
 696:	07800593          	li	a1,120
 69a:	855a                	mv	a0,s6
 69c:	d2dff0ef          	jal	3c8 <putc>
 6a0:	4941                	li	s2,16
    putc(fd, digits[x >> (sizeof(uint64) * 8 - 4)]);
 6a2:	00000b97          	auipc	s7,0x0
 6a6:	28eb8b93          	addi	s7,s7,654 # 930 <digits>
 6aa:	03c9d793          	srli	a5,s3,0x3c
 6ae:	97de                	add	a5,a5,s7
 6b0:	0007c583          	lbu	a1,0(a5)
 6b4:	855a                	mv	a0,s6
 6b6:	d13ff0ef          	jal	3c8 <putc>
  for (i = 0; i < (sizeof(uint64) * 2); i++, x <<= 4)
 6ba:	0992                	slli	s3,s3,0x4
 6bc:	397d                	addiw	s2,s2,-1
 6be:	fe0916e3          	bnez	s2,6aa <vprintf+0x21c>
        printptr(fd, va_arg(ap, uint64));
 6c2:	8bea                	mv	s7,s10
      state = 0;
 6c4:	4981                	li	s3,0
 6c6:	6d02                	ld	s10,0(sp)
 6c8:	bd01                	j	4d8 <vprintf+0x4a>
        putc(fd, va_arg(ap, uint32));
 6ca:	008b8913          	addi	s2,s7,8
 6ce:	000bc583          	lbu	a1,0(s7)
 6d2:	855a                	mv	a0,s6
 6d4:	cf5ff0ef          	jal	3c8 <putc>
 6d8:	8bca                	mv	s7,s2
      state = 0;
 6da:	4981                	li	s3,0
 6dc:	bbf5                	j	4d8 <vprintf+0x4a>
        if((s = va_arg(ap, char*)) == 0)
 6de:	008b8993          	addi	s3,s7,8
 6e2:	000bb903          	ld	s2,0(s7)
 6e6:	00090f63          	beqz	s2,704 <vprintf+0x276>
        for(; *s; s++)
 6ea:	00094583          	lbu	a1,0(s2)
 6ee:	c195                	beqz	a1,712 <vprintf+0x284>
          putc(fd, *s);
 6f0:	855a                	mv	a0,s6
 6f2:	cd7ff0ef          	jal	3c8 <putc>
        for(; *s; s++)
 6f6:	0905                	addi	s2,s2,1
 6f8:	00094583          	lbu	a1,0(s2)
 6fc:	f9f5                	bnez	a1,6f0 <vprintf+0x262>
        if((s = va_arg(ap, char*)) == 0)
 6fe:	8bce                	mv	s7,s3
      state = 0;
 700:	4981                	li	s3,0
 702:	bbd9                	j	4d8 <vprintf+0x4a>
          s = "(null)";
 704:	00000917          	auipc	s2,0x0
 708:	22490913          	addi	s2,s2,548 # 928 <malloc+0x118>
        for(; *s; s++)
 70c:	02800593          	li	a1,40
 710:	b7c5                	j	6f0 <vprintf+0x262>
        if((s = va_arg(ap, char*)) == 0)
 712:	8bce                	mv	s7,s3
      state = 0;
 714:	4981                	li	s3,0
 716:	b3c9                	j	4d8 <vprintf+0x4a>
 718:	64a6                	ld	s1,72(sp)
 71a:	79e2                	ld	s3,56(sp)
 71c:	7a42                	ld	s4,48(sp)
 71e:	7aa2                	ld	s5,40(sp)
 720:	7b02                	ld	s6,32(sp)
 722:	6be2                	ld	s7,24(sp)
 724:	6c42                	ld	s8,16(sp)
 726:	6ca2                	ld	s9,8(sp)
    }
  }
}
 728:	60e6                	ld	ra,88(sp)
 72a:	6446                	ld	s0,80(sp)
 72c:	6906                	ld	s2,64(sp)
 72e:	6125                	addi	sp,sp,96
 730:	8082                	ret

0000000000000732 <fprintf>:

void
fprintf(int fd, const char *fmt, ...)
{
 732:	715d                	addi	sp,sp,-80
 734:	ec06                	sd	ra,24(sp)
 736:	e822                	sd	s0,16(sp)
 738:	1000                	addi	s0,sp,32
 73a:	e010                	sd	a2,0(s0)
 73c:	e414                	sd	a3,8(s0)
 73e:	e818                	sd	a4,16(s0)
 740:	ec1c                	sd	a5,24(s0)
 742:	03043023          	sd	a6,32(s0)
 746:	03143423          	sd	a7,40(s0)
  va_list ap;

  va_start(ap, fmt);
 74a:	fe843423          	sd	s0,-24(s0)
  vprintf(fd, fmt, ap);
 74e:	8622                	mv	a2,s0
 750:	d3fff0ef          	jal	48e <vprintf>
}
 754:	60e2                	ld	ra,24(sp)
 756:	6442                	ld	s0,16(sp)
 758:	6161                	addi	sp,sp,80
 75a:	8082                	ret

000000000000075c <printf>:

void
printf(const char *fmt, ...)
{
 75c:	711d                	addi	sp,sp,-96
 75e:	ec06                	sd	ra,24(sp)
 760:	e822                	sd	s0,16(sp)
 762:	1000                	addi	s0,sp,32
 764:	e40c                	sd	a1,8(s0)
 766:	e810                	sd	a2,16(s0)
 768:	ec14                	sd	a3,24(s0)
 76a:	f018                	sd	a4,32(s0)
 76c:	f41c                	sd	a5,40(s0)
 76e:	03043823          	sd	a6,48(s0)
 772:	03143c23          	sd	a7,56(s0)
  va_list ap;

  va_start(ap, fmt);
 776:	00840613          	addi	a2,s0,8
 77a:	fec43423          	sd	a2,-24(s0)
  vprintf(1, fmt, ap);
 77e:	85aa                	mv	a1,a0
 780:	4505                	li	a0,1
 782:	d0dff0ef          	jal	48e <vprintf>
}
 786:	60e2                	ld	ra,24(sp)
 788:	6442                	ld	s0,16(sp)
 78a:	6125                	addi	sp,sp,96
 78c:	8082                	ret

000000000000078e <free>:
 78e:	1141                	addi	sp,sp,-16
 790:	e422                	sd	s0,8(sp)
 792:	0800                	addi	s0,sp,16
 794:	ff050693          	addi	a3,a0,-16
 798:	00001797          	auipc	a5,0x1
 79c:	8687b783          	ld	a5,-1944(a5) # 1000 <freep>
 7a0:	a02d                	j	7ca <free+0x3c>
 7a2:	4618                	lw	a4,8(a2)
 7a4:	9f2d                	addw	a4,a4,a1
 7a6:	fee52c23          	sw	a4,-8(a0)
 7aa:	6398                	ld	a4,0(a5)
 7ac:	6310                	ld	a2,0(a4)
 7ae:	a83d                	j	7ec <free+0x5e>
 7b0:	ff852703          	lw	a4,-8(a0)
 7b4:	9f31                	addw	a4,a4,a2
 7b6:	c798                	sw	a4,8(a5)
 7b8:	ff053683          	ld	a3,-16(a0)
 7bc:	a091                	j	800 <free+0x72>
 7be:	6398                	ld	a4,0(a5)
 7c0:	00e7e463          	bltu	a5,a4,7c8 <free+0x3a>
 7c4:	00e6ea63          	bltu	a3,a4,7d8 <free+0x4a>
 7c8:	87ba                	mv	a5,a4
 7ca:	fed7fae3          	bgeu	a5,a3,7be <free+0x30>
 7ce:	6398                	ld	a4,0(a5)
 7d0:	00e6e463          	bltu	a3,a4,7d8 <free+0x4a>
 7d4:	fee7eae3          	bltu	a5,a4,7c8 <free+0x3a>
 7d8:	ff852583          	lw	a1,-8(a0)
 7dc:	6390                	ld	a2,0(a5)
 7de:	02059813          	slli	a6,a1,0x20
 7e2:	01c85713          	srli	a4,a6,0x1c
 7e6:	9736                	add	a4,a4,a3
 7e8:	fae60de3          	beq	a2,a4,7a2 <free+0x14>
 7ec:	fec53823          	sd	a2,-16(a0)
 7f0:	4790                	lw	a2,8(a5)
 7f2:	02061593          	slli	a1,a2,0x20
 7f6:	01c5d713          	srli	a4,a1,0x1c
 7fa:	973e                	add	a4,a4,a5
 7fc:	fae68ae3          	beq	a3,a4,7b0 <free+0x22>
 800:	e394                	sd	a3,0(a5)
 802:	00000717          	auipc	a4,0x0
 806:	7ef73f23          	sd	a5,2046(a4) # 1000 <freep>
 80a:	6422                	ld	s0,8(sp)
 80c:	0141                	addi	sp,sp,16
 80e:	8082                	ret

0000000000000810 <malloc>:
 810:	7139                	addi	sp,sp,-64
 812:	fc06                	sd	ra,56(sp)
 814:	f822                	sd	s0,48(sp)
 816:	f426                	sd	s1,40(sp)
 818:	ec4e                	sd	s3,24(sp)
 81a:	0080                	addi	s0,sp,64
 81c:	02051493          	slli	s1,a0,0x20
 820:	9081                	srli	s1,s1,0x20
 822:	04bd                	addi	s1,s1,15
 824:	8091                	srli	s1,s1,0x4
 826:	0014899b          	addiw	s3,s1,1
 82a:	0485                	addi	s1,s1,1
 82c:	00000517          	auipc	a0,0x0
 830:	7d453503          	ld	a0,2004(a0) # 1000 <freep>
 834:	c915                	beqz	a0,868 <malloc+0x58>
 836:	611c                	ld	a5,0(a0)
 838:	4798                	lw	a4,8(a5)
 83a:	08977a63          	bgeu	a4,s1,8ce <malloc+0xbe>
 83e:	f04a                	sd	s2,32(sp)
 840:	e852                	sd	s4,16(sp)
 842:	e456                	sd	s5,8(sp)
 844:	e05a                	sd	s6,0(sp)
 846:	8a4e                	mv	s4,s3
 848:	0009871b          	sext.w	a4,s3
 84c:	6685                	lui	a3,0x1
 84e:	00d77363          	bgeu	a4,a3,854 <malloc+0x44>
 852:	6a05                	lui	s4,0x1
 854:	000a0b1b          	sext.w	s6,s4
 858:	004a1a1b          	slliw	s4,s4,0x4
 85c:	00000917          	auipc	s2,0x0
 860:	7a490913          	addi	s2,s2,1956 # 1000 <freep>
 864:	5afd                	li	s5,-1
 866:	a081                	j	8a6 <malloc+0x96>
 868:	f04a                	sd	s2,32(sp)
 86a:	e852                	sd	s4,16(sp)
 86c:	e456                	sd	s5,8(sp)
 86e:	e05a                	sd	s6,0(sp)
 870:	00000797          	auipc	a5,0x0
 874:	7a078793          	addi	a5,a5,1952 # 1010 <base>
 878:	00000717          	auipc	a4,0x0
 87c:	78f73423          	sd	a5,1928(a4) # 1000 <freep>
 880:	e39c                	sd	a5,0(a5)
 882:	0007a423          	sw	zero,8(a5)
 886:	b7c1                	j	846 <malloc+0x36>
 888:	6398                	ld	a4,0(a5)
 88a:	e118                	sd	a4,0(a0)
 88c:	a8a9                	j	8e6 <malloc+0xd6>
 88e:	01652423          	sw	s6,8(a0)
 892:	0541                	addi	a0,a0,16
 894:	efbff0ef          	jal	78e <free>
 898:	00093503          	ld	a0,0(s2)
 89c:	c12d                	beqz	a0,8fe <malloc+0xee>
 89e:	611c                	ld	a5,0(a0)
 8a0:	4798                	lw	a4,8(a5)
 8a2:	02977263          	bgeu	a4,s1,8c6 <malloc+0xb6>
 8a6:	00093703          	ld	a4,0(s2)
 8aa:	853e                	mv	a0,a5
 8ac:	fef719e3          	bne	a4,a5,89e <malloc+0x8e>
 8b0:	8552                	mv	a0,s4
 8b2:	a43ff0ef          	jal	2f4 <sbrk>
 8b6:	fd551ce3          	bne	a0,s5,88e <malloc+0x7e>
 8ba:	4501                	li	a0,0
 8bc:	7902                	ld	s2,32(sp)
 8be:	6a42                	ld	s4,16(sp)
 8c0:	6aa2                	ld	s5,8(sp)
 8c2:	6b02                	ld	s6,0(sp)
 8c4:	a03d                	j	8f2 <malloc+0xe2>
 8c6:	7902                	ld	s2,32(sp)
 8c8:	6a42                	ld	s4,16(sp)
 8ca:	6aa2                	ld	s5,8(sp)
 8cc:	6b02                	ld	s6,0(sp)
 8ce:	fae48de3          	beq	s1,a4,888 <malloc+0x78>
 8d2:	4137073b          	subw	a4,a4,s3
 8d6:	c798                	sw	a4,8(a5)
 8d8:	02071693          	slli	a3,a4,0x20
 8dc:	01c6d713          	srli	a4,a3,0x1c
 8e0:	97ba                	add	a5,a5,a4
 8e2:	0137a423          	sw	s3,8(a5)
 8e6:	00000717          	auipc	a4,0x0
 8ea:	70a73d23          	sd	a0,1818(a4) # 1000 <freep>
 8ee:	01078513          	addi	a0,a5,16
 8f2:	70e2                	ld	ra,56(sp)
 8f4:	7442                	ld	s0,48(sp)
 8f6:	74a2                	ld	s1,40(sp)
 8f8:	69e2                	ld	s3,24(sp)
 8fa:	6121                	addi	sp,sp,64
 8fc:	8082                	ret
 8fe:	7902                	ld	s2,32(sp)
 900:	6a42                	ld	s4,16(sp)
 902:	6aa2                	ld	s5,8(sp)
 904:	6b02                	ld	s6,0(sp)
 906:	b7f5                	j	8f2 <malloc+0xe2>
